target datalayout = "e-m:e-p270:32:32-p271:32:32-p272:64:64-i64:64-i128:128-f80:128-n8:16:32:64-S128"
target triple = "x86_64-pc-linux-gnu"

%struct.AVFilterPad = type { ptr, i32, i32, %union.anon, ptr, ptr, ptr }
%union.anon = type { ptr }
%struct.AVFilterContext = type { ptr, ptr, ptr, ptr, ptr, i32, ptr, ptr, i32, ptr, ptr, i32, i32, ptr, ptr, ptr, ptr, i32, ptr, i32, i32 }
%struct.AudioPhaseMeterContext = type { ptr, ptr, ptr, i64, i32, i32, i32, i32, %struct.AVRational, [4 x i32], ptr, [4 x i8], i32, i32, i32, i32, i32, i32, float, float, float, %struct.AVRational, i64, i64, [2 x i64], [2 x i64] }
%struct.AVRational = type { i32, i32 }

@.str.35 = private unnamed_addr constant [5 x i8] c"out0\00", align 1
@.str.36 = private unnamed_addr constant [5 x i8] c"out1\00", align 1

; Function Attrs: cold nounwind optsize uwtable
define internal i32 @init(ptr noundef %0) #0 {
  %2 = alloca i32, align 4
  %3 = alloca ptr, align 8
  %4 = alloca ptr, align 8
  %5 = alloca %struct.AVFilterPad, align 8
  %6 = alloca i32, align 4
  %7 = alloca %struct.AVFilterPad, align 8
  %8 = alloca i32, align 4
  %9 = alloca %struct.AVFilterPad, align 8
  store ptr %0, ptr %3, align 8, !tbaa !4
  call void @llvm.lifetime.start.p0(i64 8, ptr %4) #12
  %10 = load ptr, ptr %3, align 8, !tbaa !4
  %11 = getelementptr inbounds nuw %struct.AVFilterContext, ptr %10, i32 0, i32 9
  %12 = load ptr, ptr %11, align 8, !tbaa !9
  store ptr %12, ptr %4, align 8, !tbaa !22
  call void @llvm.lifetime.start.p0(i64 48, ptr %5) #12
  call void @llvm.lifetime.start.p0(i64 4, ptr %6) #12
  call void @llvm.memset.p0.i64(ptr align 8 %7, i8 0, i64 48, i1 false)
  %13 = getelementptr inbounds nuw %struct.AVFilterPad, ptr %7, i32 0, i32 0
  store ptr @.str.35, ptr %13, align 8, !tbaa !24
  %14 = getelementptr inbounds nuw %struct.AVFilterPad, ptr %7, i32 0, i32 1
  store i32 1, ptr %14, align 8, !tbaa !26
  call void @llvm.memcpy.p0.p0.i64(ptr align 8 %5, ptr align 8 %7, i64 48, i1 false), !tbaa.struct !27
  %15 = load ptr, ptr %3, align 8, !tbaa !4
  %16 = call i32 @ff_append_outpad(ptr noundef %15, ptr noundef %5)
  store i32 %16, ptr %6, align 4, !tbaa !29
  %17 = load i32, ptr %6, align 4, !tbaa !29
  %18 = icmp slt i32 %17, 0
  br i1 %18, label %19, label %21

19:                                               ; preds = %1
  %20 = load i32, ptr %6, align 4, !tbaa !29
  store i32 %20, ptr %2, align 4
  store i32 1, ptr %8, align 4
  br label %42

21:                                               ; preds = %1
  %22 = load ptr, ptr %4, align 8, !tbaa !22
  %23 = getelementptr inbounds nuw %struct.AudioPhaseMeterContext, ptr %22, i32 0, i32 4
  %24 = load i32, ptr %23, align 8, !tbaa !32
  %25 = icmp ne i32 %24, 0
  br i1 %25, label %26, label %41

26:                                               ; preds = %21
  %27 = getelementptr inbounds nuw %struct.AVFilterPad, ptr %9, i32 0, i32 0
  store ptr @.str.36, ptr %27, align 8, !tbaa !24
  %28 = getelementptr inbounds nuw %struct.AVFilterPad, ptr %9, i32 0, i32 1
  store i32 0, ptr %28, align 8, !tbaa !26
  %29 = getelementptr inbounds nuw %struct.AVFilterPad, ptr %9, i32 0, i32 2
  store i32 0, ptr %29, align 4, !tbaa !38
  %30 = getelementptr inbounds nuw %struct.AVFilterPad, ptr %9, i32 0, i32 3
  call void @llvm.memset.p0.i64(ptr align 8 %30, i8 0, i64 8, i1 false)
  %31 = getelementptr inbounds nuw %struct.AVFilterPad, ptr %9, i32 0, i32 4
  store ptr null, ptr %31, align 8, !tbaa !39
  %32 = getelementptr inbounds nuw %struct.AVFilterPad, ptr %9, i32 0, i32 5
  store ptr null, ptr %32, align 8, !tbaa !40
  %33 = getelementptr inbounds nuw %struct.AVFilterPad, ptr %9, i32 0, i32 6
  store ptr @config_video_output, ptr %33, align 8, !tbaa !41
  call void @llvm.memcpy.p0.p0.i64(ptr align 8 %5, ptr align 8 %9, i64 48, i1 false), !tbaa.struct !27
  %34 = load ptr, ptr %3, align 8, !tbaa !4
  %35 = call i32 @ff_append_outpad(ptr noundef %34, ptr noundef %5)
  store i32 %35, ptr %6, align 4, !tbaa !29
  %36 = load i32, ptr %6, align 4, !tbaa !29
  %37 = icmp slt i32 %36, 0
  br i1 %37, label %38, label %40

38:                                               ; preds = %26
  %39 = load i32, ptr %6, align 4, !tbaa !29
  store i32 %39, ptr %2, align 4
  store i32 1, ptr %8, align 4
  br label %42

40:                                               ; preds = %26
  br label %41

41:                                               ; preds = %40, %21
  store i32 0, ptr %2, align 4
  store i32 1, ptr %8, align 4
  br label %42

42:                                               ; preds = %41, %38, %19
  call void @llvm.lifetime.end.p0(i64 4, ptr %6) #12
  call void @llvm.lifetime.end.p0(i64 48, ptr %5) #12
  call void @llvm.lifetime.end.p0(i64 8, ptr %4) #12
  %43 = load i32, ptr %2, align 4
  ret i32 %43
}