; Function Attrs: cold nounwind optsize uwtable
define internal range(i32 -2147483648, 1) i32 @init(ptr noundef %0) #0 {
  %2 = alloca %struct.AVFilterPad, align 8
  %3 = getelementptr inbounds nuw i8, ptr %0, i64 72
  %4 = load ptr, ptr %3, align 8, !tbaa !4
  call void @llvm.lifetime.start.p0(i64 48, ptr nonnull %2) #13
  %.sroa.43.0..sroa_idx = getelementptr inbounds nuw i8, ptr %2, i64 12
  call void @llvm.memset.p0.i64(ptr noundef nonnull align 4 dereferenceable(36) %.sroa.43.0..sroa_idx, i8 0, i64 36, i1 false)
  store ptr @.str.35, ptr %2, align 8, !tbaa !20
  %.sroa.32.0..sroa_idx = getelementptr inbounds nuw i8, ptr %2, i64 8
  store i32 1, ptr %.sroa.32.0..sroa_idx, align 8, !tbaa !21
  %5 = call i32 @ff_append_outpad(ptr noundef %0, ptr noundef nonnull %2) #13
  %6 = icmp slt i32 %5, 0
  br i1 %6, label %14, label %7

7:                                                ; preds = %1
  %8 = getelementptr inbounds nuw i8, ptr %4, i64 32
  %9 = load i32, ptr %8, align 8, !tbaa !22
  %.not = icmp eq i32 %9, 0
  br i1 %.not, label %13, label %10

10:                                               ; preds = %7
  store ptr @.str.36, ptr %2, align 8, !tbaa !20
  %.sroa.7.0..sroa_idx = getelementptr inbounds nuw i8, ptr %2, i64 40
  call void @llvm.memset.p0.i64(ptr noundef nonnull align 8 dereferenceable(32) %.sroa.32.0..sroa_idx, i8 0, i64 32, i1 false)
  store ptr @config_video_output, ptr %.sroa.7.0..sroa_idx, align 8, !tbaa !28
  %11 = call i32 @ff_append_outpad(ptr noundef nonnull %0, ptr noundef nonnull %2) #13
  %12 = icmp slt i32 %11, 0
  br i1 %12, label %14, label %13

13:                                               ; preds = %10, %7
  br label %14

14:                                               ; preds = %10, %1, %13
  %.0 = phi i32 [ 0, %13 ], [ %5, %1 ], [ %11, %10 ]
  call void @llvm.lifetime.end.p0(i64 48, ptr nonnull %2) #13
  ret i32 %.0
}